; Function Attrs: mustprogress uwtable
define noundef nonnull align 8 dereferenceable(8) ptr @_ZNK6casadi18DaeBuilderInternal6CallIO4hessExx(ptr noundef nonnull readonly align 8 captures(none) dereferenceable(224) %0, i64 noundef %1, i64 noundef %2) local_unnamed_addr #4 align 2 {
  %4 = getelementptr inbounds nuw i8, ptr %0, i64 152
  %5 = getelementptr inbounds nuw i8, ptr %0, i64 160
  %6 = load ptr, ptr %5, align 8, !tbaa !199
  %7 = load ptr, ptr %4, align 8, !tbaa !196
  %8 = ptrtoint ptr %6 to i64
  %9 = ptrtoint ptr %7 to i64
  %10 = sub i64 %8, %9
  %11 = ashr exact i64 %10, 3
  %12 = add nsw i64 %11, 1
  %13 = mul i64 %12, %1
  %14 = getelementptr inbounds nuw i8, ptr %0, i64 200
  %15 = getelementptr inbounds nuw i8, ptr %0, i64 208
  %16 = load ptr, ptr %15, align 8, !tbaa !199
  %17 = load ptr, ptr %14, align 8, !tbaa !196
  %18 = ptrtoint ptr %16 to i64
  %19 = ptrtoint ptr %17 to i64
  %20 = sub i64 %18, %19
  %21 = ashr exact i64 %20, 3
  %.not.i.i = icmp ult i64 %13, %21
  br i1 %.not.i.i, label %_ZNKSt6vectorIN6casadi2MXESaIS1_EE2atEm.exit, label %22

22:                                               ; preds = %3
  tail call void (ptr, ...) @_ZSt24__throw_out_of_range_fmtPKcz(ptr noundef nonnull @.str.690, i64 noundef %13, i64 noundef %21) #29
  unreachable

_ZNKSt6vectorIN6casadi2MXESaIS1_EE2atEm.exit:     ; preds = %3
  %23 = getelementptr inbounds nuw %"class.casadi::MX", ptr %17, i64 %13
  ret ptr %23
}